(VMore Mayhem
p0
VImelda May
p1
L2011L
((L1L
VPulling the Rug
p2
tp3
(L2L
VPsycho
p4
tp5
(L3L
VMayhem
p6
tp7
(L4L
VKentish Town Waltz
p8
tp9
tp10
tp11
.(lp0
L2L
aL4L
aL6L
aL8L
a.(lp0
L1L
aL3L
aL5L
aL7L
aL9L
a.